(dp1
Vadd-every-day
p2
ccelery.beat
ScheduleEntry
p3
(Vadd-every-day
p4
Vcore.tasks.periodic_broadcast
p5
cdatetime
datetime
p6
(S'\x07\xe1\x04\x19\x11\x1d\x00\x00Yt'
tRp7
I257
ccelery.schedules
crontab
p8
(V*
V*
V*
V*
V*
tRp9
(t(dp10
(dp11
tRp12
s.p12
s.
s.V4.0.2
p1
.N.I01
.